; Function Attrs: nounwind sspstrong uwtable
define ptr @cJSON_CreateRaw(ptr noundef readonly %0) local_unnamed_addr #8 {
  %global_hooks.val = load ptr, ptr @global_hooks, align 8, !tbaa !18
  %2 = tail call ptr %global_hooks.val(i64 noundef 64) #31
  %.not.i = icmp eq ptr %2, null
  br i1 %.not.i, label %cJSON_New_Item.exit.thread, label %3

3:                                                ; preds = %1
  tail call void @llvm.memset.p0.i64(ptr noundef nonnull align 8 dereferenceable(64) %2, i8 0, i64 64, i1 false)
  %4 = getelementptr inbounds nuw i8, ptr %2, i64 24
  store i32 128, ptr %4, align 8, !tbaa !11
  %5 = icmp eq ptr %0, null
  br i1 %5, label %13, label %6

6:                                                ; preds = %3
  %7 = tail call i64 @strlen(ptr noundef nonnull readonly dereferenceable(1) %0) #32
  %8 = add i64 %7, 1
  %9 = load ptr, ptr @global_hooks, align 8, !tbaa !18
  %10 = tail call ptr %9(i64 noundef %8) #31
  %11 = icmp eq ptr %10, null
  br i1 %11, label %13, label %cJSON_strdup.exit

cJSON_strdup.exit:                                ; preds = %6
  tail call void @llvm.memcpy.p0.p0.i64(ptr nonnull align 1 %10, ptr nonnull readonly align 1 %0, i64 %8, i1 false)
  %12 = getelementptr inbounds nuw i8, ptr %2, i64 32
  store ptr %10, ptr %12, align 8, !tbaa !16
  br label %cJSON_New_Item.exit.thread

13:                                               ; preds = %3, %6
  %14 = getelementptr inbounds nuw i8, ptr %2, i64 32
  store ptr null, ptr %14, align 8, !tbaa !16
  tail call void @cJSON_Delete(ptr noundef nonnull %2)
  br label %cJSON_New_Item.exit.thread

cJSON_New_Item.exit.thread:                       ; preds = %1, %cJSON_strdup.exit, %13
  %.0 = phi ptr [ null, %13 ], [ %2, %cJSON_strdup.exit ], [ null, %1 ]
  ret ptr %.0
}